; Function Attrs: mustprogress uwtable
define internal fastcc void @_ZN7testing8internal26CartesianProductGenerator2IN11opencv_test12_GLOBAL__N_113Feature2DTypeENSt7__cxx1112basic_stringIcSt11char_traitsIcESaIcEEEEC2ERKNS0_14ParamGeneratorIS4_EERKNSC_ISA_EE(ptr noundef nonnull align 8 dereferenceable(40) %0, ptr noundef nonnull align 8 dereferenceable(16) %1, ptr noundef nonnull align 8 dereferenceable(16) %2) unnamed_addr #3 align 2 personality ptr @__gxx_personality_v0 {
  store ptr getelementptr inbounds inrange(-16, 32) (i8, ptr @_ZTVN7testing8internal26CartesianProductGenerator2IN11opencv_test12_GLOBAL__N_113Feature2DTypeENSt7__cxx1112basic_stringIcSt11char_traitsIcESaIcEEEEE, i64 16), ptr %0, align 8
  %4 = getelementptr inbounds i8, ptr %0, i64 8
  %.val.i.i.i = load ptr, ptr %1, align 8
  store ptr %.val.i.i.i, ptr %4, align 8
  %.not.i.i.i = icmp eq ptr %.val.i.i.i, null
  br i1 %.not.i.i.i, label %13, label %5

5:                                                ; preds = %3
  %6 = getelementptr inbounds i8, ptr %1, i64 8
  tail call void @_ZN7testing8internal9MutexBase4LockEv(ptr noundef nonnull align 8 dereferenceable(56) @_ZN7testing8internal18g_linked_ptr_mutexE)
  br label %.noexc

.noexc:                                           ; preds = %5, %.noexc
  %.0.i.i.i.i = phi ptr [ %7, %.noexc ], [ %6, %5 ]
  %7 = load ptr, ptr %.0.i.i.i.i, align 8
  %.not.i.i.i.i = icmp eq ptr %7, %6
  br i1 %.not.i.i.i.i, label %8, label %.noexc, !llvm.loop !5

8:                                                ; preds = %.noexc
  %9 = getelementptr inbounds i8, ptr %0, i64 16
  store ptr %9, ptr %.0.i.i.i.i, align 8
  store ptr %6, ptr %9, align 8
  invoke void @_ZN7testing8internal9MutexBase6UnlockEv(ptr noundef nonnull align 8 dereferenceable(56) @_ZN7testing8internal18g_linked_ptr_mutexE)
          to label %_ZN7testing8internal14ParamGeneratorIN11opencv_test12_GLOBAL__N_113Feature2DTypeEEC2ERKS5_.exit unwind label %10

10:                                               ; preds = %8
  %11 = landingpad { ptr, i32 }
          catch ptr null
  %12 = extractvalue { ptr, i32 } %11, 0
  tail call void @__clang_call_terminate(ptr %12) #28
  unreachable

13:                                               ; preds = %3
  %14 = getelementptr inbounds i8, ptr %0, i64 16
  store ptr %14, ptr %14, align 8
  br label %_ZN7testing8internal14ParamGeneratorIN11opencv_test12_GLOBAL__N_113Feature2DTypeEEC2ERKS5_.exit

_ZN7testing8internal14ParamGeneratorIN11opencv_test12_GLOBAL__N_113Feature2DTypeEEC2ERKS5_.exit: ; preds = %13, %8
  %15 = getelementptr inbounds i8, ptr %0, i64 24
  %16 = load ptr, ptr %2, align 8
  store ptr %16, ptr %15, align 8
  %.not.i.i.i6 = icmp eq ptr %16, null
  br i1 %.not.i.i.i6, label %25, label %17

17:                                               ; preds = %_ZN7testing8internal14ParamGeneratorIN11opencv_test12_GLOBAL__N_113Feature2DTypeEEC2ERKS5_.exit
  %18 = getelementptr inbounds i8, ptr %2, i64 8
  invoke void @_ZN7testing8internal9MutexBase4LockEv(ptr noundef nonnull align 8 dereferenceable(56) @_ZN7testing8internal18g_linked_ptr_mutexE)
          to label %.noexc9 unwind label %27

.noexc9:                                          ; preds = %17, %.noexc9
  %.0.i.i.i.i7 = phi ptr [ %19, %.noexc9 ], [ %18, %17 ]
  %19 = load ptr, ptr %.0.i.i.i.i7, align 8
  %.not.i.i.i.i8 = icmp eq ptr %19, %18
  br i1 %.not.i.i.i.i8, label %20, label %.noexc9, !llvm.loop !5

20:                                               ; preds = %.noexc9
  %21 = getelementptr inbounds i8, ptr %0, i64 32
  store ptr %21, ptr %.0.i.i.i.i7, align 8
  store ptr %18, ptr %21, align 8
  invoke void @_ZN7testing8internal9MutexBase6UnlockEv(ptr noundef nonnull align 8 dereferenceable(56) @_ZN7testing8internal18g_linked_ptr_mutexE)
          to label %_ZN7testing8internal14ParamGeneratorINSt7__cxx1112basic_stringIcSt11char_traitsIcESaIcEEEEC2ERKS8_.exit unwind label %22

22:                                               ; preds = %20
  %23 = landingpad { ptr, i32 }
          catch ptr null
  %24 = extractvalue { ptr, i32 } %23, 0
  tail call void @__clang_call_terminate(ptr %24) #28
  unreachable

25:                                               ; preds = %_ZN7testing8internal14ParamGeneratorIN11opencv_test12_GLOBAL__N_113Feature2DTypeEEC2ERKS5_.exit
  %26 = getelementptr inbounds i8, ptr %0, i64 32
  store ptr %26, ptr %26, align 8
  br label %_ZN7testing8internal14ParamGeneratorINSt7__cxx1112basic_stringIcSt11char_traitsIcESaIcEEEEC2ERKS8_.exit

_ZN7testing8internal14ParamGeneratorINSt7__cxx1112basic_stringIcSt11char_traitsIcESaIcEEEEC2ERKS8_.exit: ; preds = %25, %20
  ret void

27:                                               ; preds = %17
  %28 = landingpad { ptr, i32 }
          cleanup
  tail call fastcc void @_ZN7testing8internal14ParamGeneratorIN11opencv_test12_GLOBAL__N_113Feature2DTypeEED2Ev(ptr noundef nonnull align 8 dereferenceable(16) %4) #26
  resume { ptr, i32 } %28
}